target datalayout = "e-m:e-p270:32:32-p271:32:32-p272:64:64-i64:64-i128:128-f80:128-n8:16:32:64-S128"
target triple = "x86_64-unknown-linux-gnu"

%struct.TPMPassthruState = type { %struct.TPMBackend, ptr, ptr, i32, i8, i8, i32, i32, i64 }
%struct.TPMBackend = type { %struct.Object, ptr, i8, i8, ptr, ptr, %struct.anon }
%struct.Object = type { ptr, ptr, ptr, i32, ptr }
%struct.anon = type { ptr, ptr }

@.str = private unnamed_addr constant [16 x i8] c"tpm-passthrough\00", align 1
@.str.2 = private unnamed_addr constant [39 x i8] c"../qemu/backends/tpm/tpm_passthrough.c\00", align 1
@__func__.TPM_PASSTHROUGH = private unnamed_addr constant [16 x i8] c"TPM_PASSTHROUGH\00", align 1

; Function Attrs: nounwind sspstrong uwtable
define internal ptr @TPM_PASSTHROUGH(ptr noundef %obj) #0 {
entry:
  %obj.addr = alloca ptr, align 8
  store ptr %obj, ptr %obj.addr, align 8
  %0 = load ptr, ptr %obj.addr, align 8
  %call = call ptr @object_dynamic_cast_assert(ptr noundef %0, ptr noundef @.str, ptr noundef @.str.2, i32 noundef 38, ptr noundef @__func__.TPM_PASSTHROUGH)
  ret ptr %call
}

; Function Attrs: nounwind sspstrong uwtable
define internal i64 @tpm_passthrough_get_buffer_size(ptr noundef %tb) #0 {
entry:
  %tb.addr = alloca ptr, align 8
  %tpm_pt = alloca ptr, align 8
  %ret = alloca i32, align 4
  store ptr %tb, ptr %tb.addr, align 8
  %0 = load ptr, ptr %tb.addr, align 8
  %call = call ptr @TPM_PASSTHROUGH(ptr noundef %0)
  store ptr %call, ptr %tpm_pt, align 8
  %1 = load ptr, ptr %tpm_pt, align 8
  %tpm_fd = getelementptr inbounds %struct.TPMPassthruState, ptr %1, i32 0, i32 3
  %2 = load i32, ptr %tpm_fd, align 8
  %3 = load ptr, ptr %tpm_pt, align 8
  %tpm_version = getelementptr inbounds %struct.TPMPassthruState, ptr %3, i32 0, i32 7
  %4 = load i32, ptr %tpm_version, align 4
  %5 = load ptr, ptr %tpm_pt, align 8
  %tpm_buffersize = getelementptr inbounds %struct.TPMPassthruState, ptr %5, i32 0, i32 8
  %call1 = call i32 @tpm_util_get_buffer_size(i32 noundef %2, i32 noundef %4, ptr noundef %tpm_buffersize)
  store i32 %call1, ptr %ret, align 4
  %6 = load i32, ptr %ret, align 4
  %cmp = icmp slt i32 %6, 0
  br i1 %cmp, label %if.then, label %if.end

if.then:                                          ; preds = %entry
  %7 = load ptr, ptr %tpm_pt, align 8
  %tpm_buffersize2 = getelementptr inbounds %struct.TPMPassthruState, ptr %7, i32 0, i32 8
  store i64 4096, ptr %tpm_buffersize2, align 8
  br label %if.end

if.end:                                           ; preds = %if.then, %entry
  %8 = load ptr, ptr %tpm_pt, align 8
  %tpm_buffersize3 = getelementptr inbounds %struct.TPMPassthruState, ptr %8, i32 0, i32 8
  %9 = load i64, ptr %tpm_buffersize3, align 8
  ret i64 %9
}