; Function Attrs: nounwind sspstrong uwtable
define internal i64 @tpm_passthrough_get_buffer_size(ptr noundef %tb) #0 {
entry:
  %call.i = tail call ptr @object_dynamic_cast_assert(ptr noundef %tb, ptr noundef nonnull @.str, ptr noundef nonnull @.str.2, i32 noundef 38, ptr noundef nonnull @__func__.TPM_PASSTHROUGH) #11
  %tpm_fd = getelementptr inbounds nuw i8, ptr %call.i, i64 104
  %0 = load i32, ptr %tpm_fd, align 8
  %tpm_version = getelementptr inbounds nuw i8, ptr %call.i, i64 116
  %1 = load i32, ptr %tpm_version, align 4
  %tpm_buffersize = getelementptr inbounds nuw i8, ptr %call.i, i64 120
  %call1 = tail call i32 @tpm_util_get_buffer_size(i32 noundef %0, i32 noundef %1, ptr noundef nonnull %tpm_buffersize) #11
  %cmp = icmp slt i32 %call1, 0
  br i1 %cmp, label %if.then, label %entry.if.end_crit_edge

entry.if.end_crit_edge:                           ; preds = %entry
  %.pre = load i64, ptr %tpm_buffersize, align 8
  br label %if.end

if.then:                                          ; preds = %entry
  store i64 4096, ptr %tpm_buffersize, align 8
  br label %if.end

if.end:                                           ; preds = %entry.if.end_crit_edge, %if.then
  %2 = phi i64 [ %.pre, %entry.if.end_crit_edge ], [ 4096, %if.then ]
  ret i64 %2
}